; Function Attrs: mustprogress nofree norecurse nosync nounwind willreturn memory(read, inaccessiblemem: none) uwtable
define dso_local i32 @index_getprocid(ptr noundef readonly captures(none) %0, i16 noundef signext %1, i16 noundef zeroext %2) local_unnamed_addr #5 {
  %4 = getelementptr inbounds nuw i8, ptr %0, i64 352
  %5 = load ptr, ptr %4, align 8
  %6 = getelementptr inbounds nuw i8, ptr %5, i64 6
  %7 = load i16, ptr %6, align 2
  %8 = zext i16 %7 to i64
  %9 = sext i16 %1 to i64
  %10 = add nsw i64 %9, 4294967295
  %11 = mul nuw nsw i64 %10, %8
  %12 = zext i16 %2 to i64
  %13 = add nuw nsw i64 %12, 4294967295
  %14 = add nuw nsw i64 %13, %11
  %15 = getelementptr inbounds nuw i8, ptr %0, i64 376
  %16 = load ptr, ptr %15, align 8
  %sext = shl i64 %14, 32
  %17 = ashr exact i64 %sext, 30
  %18 = getelementptr inbounds i8, ptr %16, i64 %17
  %19 = load i32, ptr %18, align 4
  ret i32 %19
}